target datalayout = "e-m:e-p270:32:32-p271:32:32-p272:64:64-i64:64-i128:128-f80:128-n8:16:32:64-S128"
target triple = "x86_64-pc-linux-gnu"

%struct.vfd = type { i32, i16, ptr, i32, i32, i32, i64, ptr, i32, i32 }

@VfdCache = internal global ptr null, align 8
@SizeVfdCache = internal global i64 0, align 8

; Function Attrs: nounwind uwtable
define dso_local void @closeAllVfds() #0 {
  %1 = alloca i32, align 4
  call void @llvm.lifetime.start.p0(i64 4, ptr %1) #14
  %2 = load i64, ptr @SizeVfdCache, align 8
  %3 = icmp ugt i64 %2, 0
  br i1 %3, label %4, label %25

4:                                                ; preds = %0
  store i32 1, ptr %1, align 4
  br label %5

5:                                                ; preds = %21, %4
  %6 = load i32, ptr %1, align 4
  %7 = zext i32 %6 to i64
  %8 = load i64, ptr @SizeVfdCache, align 8
  %9 = icmp ult i64 %7, %8
  br i1 %9, label %10, label %24

10:                                               ; preds = %5
  %11 = load ptr, ptr @VfdCache, align 8
  %12 = load i32, ptr %1, align 4
  %13 = zext i32 %12 to i64
  %14 = getelementptr inbounds nuw %struct.vfd, ptr %11, i64 %13
  %15 = getelementptr inbounds nuw %struct.vfd, ptr %14, i32 0, i32 0
  %16 = load i32, ptr %15, align 8
  %17 = icmp eq i32 %16, -1
  br i1 %17, label %20, label %18

18:                                               ; preds = %10
  %19 = load i32, ptr %1, align 4
  call void @LruDelete(i32 noundef %19)
  br label %20

20:                                               ; preds = %18, %10
  br label %21

21:                                               ; preds = %20
  %22 = load i32, ptr %1, align 4
  %23 = add i32 %22, 1
  store i32 %23, ptr %1, align 4
  br label %5, !llvm.loop !18

24:                                               ; preds = %5
  br label %25

25:                                               ; preds = %24, %0
  call void @llvm.lifetime.end.p0(i64 4, ptr %1) #14
  ret void
}