; Function Attrs: nounwind uwtable
define dso_local void @closeAllVfds() local_unnamed_addr #0 {
  %1 = load i64, ptr @SizeVfdCache, align 8
  %2 = icmp ugt i64 %1, 1
  br i1 %2, label %.lr.ph.preheader, label %.loopexit

.lr.ph.preheader:                                 ; preds = %0
  %.pre7 = load ptr, ptr @VfdCache, align 8
  br label %.lr.ph

.lr.ph:                                           ; preds = %.lr.ph.preheader, %10
  %3 = phi i64 [ %11, %10 ], [ %1, %.lr.ph.preheader ]
  %4 = phi ptr [ %12, %10 ], [ %.pre7, %.lr.ph.preheader ]
  %5 = phi i64 [ %14, %10 ], [ 1, %.lr.ph.preheader ]
  %.05 = phi i32 [ %13, %10 ], [ 1, %.lr.ph.preheader ]
  %6 = getelementptr inbounds nuw %struct.vfd, ptr %4, i64 %5
  %7 = load i32, ptr %6, align 8
  %8 = icmp eq i32 %7, -1
  br i1 %8, label %10, label %9

9:                                                ; preds = %.lr.ph
  tail call fastcc void @LruDelete(i32 noundef %.05)
  %.pre = load ptr, ptr @VfdCache, align 8
  %.pre8 = load i64, ptr @SizeVfdCache, align 8
  br label %10

10:                                               ; preds = %.lr.ph, %9
  %11 = phi i64 [ %3, %.lr.ph ], [ %.pre8, %9 ]
  %12 = phi ptr [ %4, %.lr.ph ], [ %.pre, %9 ]
  %13 = add i32 %.05, 1
  %14 = zext i32 %13 to i64
  %15 = icmp ugt i64 %11, %14
  br i1 %15, label %.lr.ph, label %.loopexit, !llvm.loop !18

.loopexit:                                        ; preds = %10, %0
  ret void
}